target datalayout = "e-m:e-p270:32:32-p271:32:32-p272:64:64-i64:64-i128:128-f80:128-n8:16:32:64-S128"
target triple = "x86_64-pc-linux-gnu"

%struct.PROVIDER_CONF_GLOBAL = type { ptr, ptr }

@.str = private unnamed_addr constant [34 x i8] c"../openssl/crypto/provider_conf.c\00", align 1

; Function Attrs: nounwind uwtable
define ptr @ossl_prov_conf_ctx_new(ptr noundef %0) #0 {
  %2 = alloca ptr, align 8
  %3 = alloca ptr, align 8
  %4 = alloca ptr, align 8
  %5 = alloca i32, align 4
  store ptr %0, ptr %3, align 8, !tbaa !3
  call void @llvm.lifetime.start.p0(i64 8, ptr %4) #6
  %6 = call noalias ptr @CRYPTO_zalloc(i64 noundef 16, ptr noundef @.str, i32 noundef 32)
  store ptr %6, ptr %4, align 8, !tbaa !8
  %7 = load ptr, ptr %4, align 8, !tbaa !8
  %8 = icmp eq ptr %7, null
  br i1 %8, label %9, label %10

9:                                                ; preds = %1
  store ptr null, ptr %2, align 8
  store i32 1, ptr %5, align 4
  br label %22

10:                                               ; preds = %1
  %11 = call ptr @CRYPTO_THREAD_lock_new()
  %12 = load ptr, ptr %4, align 8, !tbaa !8
  %13 = getelementptr inbounds nuw %struct.PROVIDER_CONF_GLOBAL, ptr %12, i32 0, i32 0
  store ptr %11, ptr %13, align 8, !tbaa !9
  %14 = load ptr, ptr %4, align 8, !tbaa !8
  %15 = getelementptr inbounds nuw %struct.PROVIDER_CONF_GLOBAL, ptr %14, i32 0, i32 0
  %16 = load ptr, ptr %15, align 8, !tbaa !9
  %17 = icmp eq ptr %16, null
  br i1 %17, label %18, label %20

18:                                               ; preds = %10
  %19 = load ptr, ptr %4, align 8, !tbaa !8
  call void @CRYPTO_free(ptr noundef %19, ptr noundef @.str, i32 noundef 39)
  store ptr null, ptr %2, align 8
  store i32 1, ptr %5, align 4
  br label %22

20:                                               ; preds = %10
  %21 = load ptr, ptr %4, align 8, !tbaa !8
  store ptr %21, ptr %2, align 8
  store i32 1, ptr %5, align 4
  br label %22

22:                                               ; preds = %20, %18, %9
  call void @llvm.lifetime.end.p0(i64 8, ptr %4) #6
  %23 = load ptr, ptr %2, align 8
  ret ptr %23
}