; Function Attrs: nounwind uwtable
define ptr @ossl_prov_conf_ctx_new(ptr noundef readnone captures(none) %0) local_unnamed_addr #0 {
  %2 = tail call noalias ptr @CRYPTO_zalloc(i64 noundef 16, ptr noundef nonnull @.str, i32 noundef 32) #5
  %3 = icmp eq ptr %2, null
  br i1 %3, label %8, label %4

4:                                                ; preds = %1
  %5 = tail call ptr @CRYPTO_THREAD_lock_new() #5
  store ptr %5, ptr %2, align 8, !tbaa !3
  %6 = icmp eq ptr %5, null
  br i1 %6, label %7, label %8

7:                                                ; preds = %4
  tail call void @CRYPTO_free(ptr noundef nonnull %2, ptr noundef nonnull @.str, i32 noundef 39) #5
  br label %8

8:                                                ; preds = %4, %1, %7
  %.0 = phi ptr [ null, %7 ], [ null, %1 ], [ %2, %4 ]
  ret ptr %.0
}